target datalayout = "e-m:e-p270:32:32-p271:32:32-p272:64:64-i64:64-i128:128-f80:128-n8:16:32:64-S128"
target triple = "x86_64-pc-linux-gnu"

%union.pthread_mutex_t = type { %struct.__pthread_mutex_s }
%struct.__pthread_mutex_s = type { i32, i32, i32, i32, i32, i16, i16, %struct.__pthread_internal_list }
%struct.__pthread_internal_list = type { ptr, ptr }
%struct.acct_gather_profile_timer_t = type { i32, i64, %union.pthread_cond_t, %union.pthread_mutex_t }
%union.pthread_cond_t = type { %struct.__pthread_cond_s }
%struct.__pthread_cond_s = type { %union.__atomic_wide_counter, %union.__atomic_wide_counter, [2 x i32], [2 x i32], i32, i32, [2 x i32] }
%union.__atomic_wide_counter = type { i64 }
%struct.plugin_context_t = type { ptr, ptr, ptr }

@g_context_lock = internal global %union.pthread_mutex_t zeroinitializer, align 8
@.str.1 = private unnamed_addr constant [29 x i8] c"%s: pthread_mutex_lock(): %m\00", align 1
@g_context_num = internal global i32 -1, align 4
@init_run = internal global i8 0, align 1
@ops = internal global ptr null, align 8
@.str.3 = private unnamed_addr constant [27 x i8] c"acct_gather_interconnect.c\00", align 1
@g_context = internal global ptr null, align 8
@.str.7 = private unnamed_addr constant [31 x i8] c"%s: pthread_mutex_unlock(): %m\00", align 1
@__func__.acct_gather_interconnect_fini = private unnamed_addr constant [30 x i8] c"acct_gather_interconnect_fini\00", align 1
@watch_node_thread_id = internal global i64 0, align 8
@profile_timer = internal global ptr getelementptr (i8, ptr @acct_gather_profile_timer, i64 312), align 8
@.str.9 = private unnamed_addr constant [36 x i8] c"%s:%d %s: pthread_cond_signal(): %m\00", align 1
@.str.10 = private unnamed_addr constant [23 x i8] c"%s: pthread_join(): %m\00", align 1
@.str.11 = private unnamed_addr constant [11 x i8] c"%s: %s: %s\00", align 1

; Function Attrs: nounwind uwtable
define dso_local i32 @acct_gather_interconnect_fini() #0 {
  %1 = alloca i32, align 4
  %2 = alloca i32, align 4
  %3 = alloca i32, align 4
  %4 = alloca i32, align 4
  %5 = alloca i32, align 4
  %6 = alloca i32, align 4
  %7 = alloca i32, align 4
  %8 = alloca i32, align 4
  %9 = alloca i32, align 4
  %10 = alloca i32, align 4
  %11 = alloca i32, align 4
  %12 = alloca i32, align 4
  %13 = alloca i32, align 4
  %14 = alloca i32, align 4
  call void @llvm.lifetime.start.p0(i64 4, ptr %2) #6
  call void @llvm.lifetime.start.p0(i64 4, ptr %3) #6
  store i32 0, ptr %3, align 4
  call void @llvm.lifetime.start.p0(i64 4, ptr %4) #6
  br label %15

15:                                               ; preds = %0
  call void @llvm.lifetime.start.p0(i64 4, ptr %5) #6
  %16 = call i32 @pthread_mutex_lock(ptr noundef @g_context_lock) #6
  store i32 %16, ptr %5, align 4
  %17 = load i32, ptr %5, align 4
  %18 = icmp ne i32 %17, 0
  br i1 %18, label %19, label %22

19:                                               ; preds = %15
  %20 = load i32, ptr %5, align 4
  %21 = call ptr @__errno_location() #7
  store i32 %20, ptr %21, align 4
  call void (ptr, ...) @fatal_abort(ptr noundef @.str.1, ptr noundef @__func__.acct_gather_interconnect_fini) #8
  unreachable

22:                                               ; preds = %15
  call void @llvm.lifetime.end.p0(i64 4, ptr %5) #6
  br label %23

23:                                               ; preds = %22
  br label %24

24:                                               ; preds = %23
  %25 = load i8, ptr @init_run, align 1, !range !11, !noundef !12
  %26 = trunc i8 %25 to i1
  br i1 %26, label %38, label %27

27:                                               ; preds = %24
  br label %28

28:                                               ; preds = %27
  call void @llvm.lifetime.start.p0(i64 4, ptr %6) #6
  %29 = call i32 @pthread_mutex_unlock(ptr noundef @g_context_lock) #6
  store i32 %29, ptr %6, align 4
  %30 = load i32, ptr %6, align 4
  %31 = icmp ne i32 %30, 0
  br i1 %31, label %32, label %35

32:                                               ; preds = %28
  %33 = load i32, ptr %6, align 4
  %34 = call ptr @__errno_location() #7
  store i32 %33, ptr %34, align 4
  call void (ptr, ...) @fatal_abort(ptr noundef @.str.7, ptr noundef @__func__.acct_gather_interconnect_fini) #8
  unreachable

35:                                               ; preds = %28
  call void @llvm.lifetime.end.p0(i64 4, ptr %6) #6
  br label %36

36:                                               ; preds = %35
  br label %37

37:                                               ; preds = %36
  store i32 0, ptr %1, align 4
  store i32 1, ptr %7, align 4
  br label %173

38:                                               ; preds = %24
  store i8 0, ptr @init_run, align 1
  %39 = load i64, ptr @watch_node_thread_id, align 8
  %40 = icmp ne i64 %39, 0
  br i1 %40, label %41, label %115

41:                                               ; preds = %38
  br label %42

42:                                               ; preds = %41
  call void @llvm.lifetime.start.p0(i64 4, ptr %8) #6
  %43 = call i32 @pthread_mutex_unlock(ptr noundef @g_context_lock) #6
  store i32 %43, ptr %8, align 4
  %44 = load i32, ptr %8, align 4
  %45 = icmp ne i32 %44, 0
  br i1 %45, label %46, label %49

46:                                               ; preds = %42
  %47 = load i32, ptr %8, align 4
  %48 = call ptr @__errno_location() #7
  store i32 %47, ptr %48, align 4
  call void (ptr, ...) @fatal_abort(ptr noundef @.str.7, ptr noundef @__func__.acct_gather_interconnect_fini) #8
  unreachable

49:                                               ; preds = %42
  call void @llvm.lifetime.end.p0(i64 4, ptr %8) #6
  br label %50

50:                                               ; preds = %49
  br label %51

51:                                               ; preds = %50
  br label %52

52:                                               ; preds = %51
  call void @llvm.lifetime.start.p0(i64 4, ptr %9) #6
  %53 = load ptr, ptr @profile_timer, align 8
  %54 = getelementptr inbounds nuw %struct.acct_gather_profile_timer_t, ptr %53, i32 0, i32 3
  %55 = call i32 @pthread_mutex_lock(ptr noundef %54) #6
  store i32 %55, ptr %9, align 4
  %56 = load i32, ptr %9, align 4
  %57 = icmp ne i32 %56, 0
  br i1 %57, label %58, label %61

58:                                               ; preds = %52
  %59 = load i32, ptr %9, align 4
  %60 = call ptr @__errno_location() #7
  store i32 %59, ptr %60, align 4
  call void (ptr, ...) @fatal_abort(ptr noundef @.str.1, ptr noundef @__func__.acct_gather_interconnect_fini) #8
  unreachable

61:                                               ; preds = %52
  call void @llvm.lifetime.end.p0(i64 4, ptr %9) #6
  br label %62

62:                                               ; preds = %61
  br label %63

63:                                               ; preds = %62
  br label %64

64:                                               ; preds = %63
  call void @llvm.lifetime.start.p0(i64 4, ptr %10) #6
  %65 = load ptr, ptr @profile_timer, align 8
  %66 = getelementptr inbounds nuw %struct.acct_gather_profile_timer_t, ptr %65, i32 0, i32 2
  %67 = call i32 @pthread_cond_signal(ptr noundef %66) #6
  store i32 %67, ptr %10, align 4
  %68 = load i32, ptr %10, align 4
  %69 = icmp ne i32 %68, 0
  br i1 %69, label %70, label %74

70:                                               ; preds = %64
  %71 = load i32, ptr %10, align 4
  %72 = call ptr @__errno_location() #7
  store i32 %71, ptr %72, align 4
  %73 = call i32 (ptr, ...) @error(ptr noundef @.str.9, ptr noundef @.str.3, i32 noundef 193, ptr noundef @__func__.acct_gather_interconnect_fini)
  br label %74

74:                                               ; preds = %70, %64
  call void @llvm.lifetime.end.p0(i64 4, ptr %10) #6
  br label %75

75:                                               ; preds = %74
  br label %76

76:                                               ; preds = %75
  br label %77

77:                                               ; preds = %76
  call void @llvm.lifetime.start.p0(i64 4, ptr %11) #6
  %78 = load ptr, ptr @profile_timer, align 8
  %79 = getelementptr inbounds nuw %struct.acct_gather_profile_timer_t, ptr %78, i32 0, i32 3
  %80 = call i32 @pthread_mutex_unlock(ptr noundef %79) #6
  store i32 %80, ptr %11, align 4
  %81 = load i32, ptr %11, align 4
  %82 = icmp ne i32 %81, 0
  br i1 %82, label %83, label %86

83:                                               ; preds = %77
  %84 = load i32, ptr %11, align 4
  %85 = call ptr @__errno_location() #7
  store i32 %84, ptr %85, align 4
  call void (ptr, ...) @fatal_abort(ptr noundef @.str.7, ptr noundef @__func__.acct_gather_interconnect_fini) #8
  unreachable

86:                                               ; preds = %77
  call void @llvm.lifetime.end.p0(i64 4, ptr %11) #6
  br label %87

87:                                               ; preds = %86
  br label %88

88:                                               ; preds = %87
  br label %89

89:                                               ; preds = %88
  call void @llvm.lifetime.start.p0(i64 4, ptr %12) #6
  store i32 0, ptr %12, align 4
  %90 = load i64, ptr @watch_node_thread_id, align 8
  %91 = icmp ne i64 %90, 0
  br i1 %91, label %92, label %95

92:                                               ; preds = %89
  %93 = load i64, ptr @watch_node_thread_id, align 8
  %94 = call i32 @pthread_join(i64 noundef %93, ptr noundef null)
  store i32 %94, ptr %12, align 4
  store i64 0, ptr @watch_node_thread_id, align 8
  br label %95

95:                                               ; preds = %92, %89
  %96 = load i32, ptr %12, align 4
  %97 = icmp ne i32 %96, 0
  br i1 %97, label %98, label %102

98:                                               ; preds = %95
  %99 = load i32, ptr %12, align 4
  %100 = call ptr @__errno_location() #7
  store i32 %99, ptr %100, align 4
  %101 = call i32 (ptr, ...) @error(ptr noundef @.str.10, ptr noundef @__func__.acct_gather_interconnect_fini)
  br label %102

102:                                              ; preds = %98, %95
  call void @llvm.lifetime.end.p0(i64 4, ptr %12) #6
  br label %103

103:                                              ; preds = %102
  br label %104

104:                                              ; preds = %103
  store i64 0, ptr @watch_node_thread_id, align 8
  br label %105

105:                                              ; preds = %104
  call void @llvm.lifetime.start.p0(i64 4, ptr %13) #6
  %106 = call i32 @pthread_mutex_lock(ptr noundef @g_context_lock) #6
  store i32 %106, ptr %13, align 4
  %107 = load i32, ptr %13, align 4
  %108 = icmp ne i32 %107, 0
  br i1 %108, label %109, label %112

109:                                              ; preds = %105
  %110 = load i32, ptr %13, align 4
  %111 = call ptr @__errno_location() #7
  store i32 %110, ptr %111, align 4
  call void (ptr, ...) @fatal_abort(ptr noundef @.str.1, ptr noundef @__func__.acct_gather_interconnect_fini) #8
  unreachable

112:                                              ; preds = %105
  call void @llvm.lifetime.end.p0(i64 4, ptr %13) #6
  br label %113

113:                                              ; preds = %112
  br label %114

114:                                              ; preds = %113
  br label %115

115:                                              ; preds = %114, %38
  store i32 0, ptr %4, align 4
  br label %116

116:                                              ; preds = %158, %115
  %117 = load i32, ptr %4, align 4
  %118 = load i32, ptr @g_context_num, align 4
  %119 = icmp slt i32 %117, %118
  br i1 %119, label %120, label %161

120:                                              ; preds = %116
  %121 = load ptr, ptr @g_context, align 8
  %122 = load i32, ptr %4, align 4
  %123 = sext i32 %122 to i64
  %124 = getelementptr inbounds ptr, ptr %121, i64 %123
  %125 = load ptr, ptr %124, align 8
  %126 = icmp ne ptr %125, null
  br i1 %126, label %128, label %127

127:                                              ; preds = %120
  br label %158

128:                                              ; preds = %120
  %129 = load ptr, ptr @g_context, align 8
  %130 = load i32, ptr %4, align 4
  %131 = sext i32 %130 to i64
  %132 = getelementptr inbounds ptr, ptr %129, i64 %131
  %133 = load ptr, ptr %132, align 8
  %134 = call i32 @plugin_context_destroy(ptr noundef %133)
  store i32 %134, ptr %2, align 4
  %135 = load i32, ptr %2, align 4
  %136 = icmp ne i32 %135, 0
  br i1 %136, label %137, label %157

137:                                              ; preds = %128
  br label %138

138:                                              ; preds = %137
  br label %139

139:                                              ; preds = %138
  %140 = call i32 @get_log_level()
  %141 = icmp sge i32 %140, 5
  br i1 %141, label %142, label %152

142:                                              ; preds = %139
  %143 = load ptr, ptr @g_context, align 8
  %144 = load i32, ptr %4, align 4
  %145 = sext i32 %144 to i64
  %146 = getelementptr inbounds ptr, ptr %143, i64 %145
  %147 = load ptr, ptr %146, align 8
  %148 = getelementptr inbounds nuw %struct.plugin_context_t, ptr %147, i32 0, i32 2
  %149 = load ptr, ptr %148, align 8
  %150 = load i32, ptr %2, align 4
  %151 = call ptr @slurm_strerror(i32 noundef %150)
  call void (i32, ptr, ...) @log_var(i32 noundef 5, ptr noundef @.str.11, ptr noundef @__func__.acct_gather_interconnect_fini, ptr noundef %149, ptr noundef %151)
  br label %152

152:                                              ; preds = %142, %139
  br label %153

153:                                              ; preds = %152
  br label %154

154:                                              ; preds = %153
  br label %155

155:                                              ; preds = %154
  br label %156

156:                                              ; preds = %155
  store i32 -1, ptr %3, align 4
  br label %157

157:                                              ; preds = %156, %128
  br label %158

158:                                              ; preds = %157, %127
  %159 = load i32, ptr %4, align 4
  %160 = add nsw i32 %159, 1
  store i32 %160, ptr %4, align 4
  br label %116, !llvm.loop !13

161:                                              ; preds = %116
  call void @slurm_xfree(ptr noundef @ops)
  call void @slurm_xfree(ptr noundef @g_context)
  store i32 -1, ptr @g_context_num, align 4
  br label %162

162:                                              ; preds = %161
  call void @llvm.lifetime.start.p0(i64 4, ptr %14) #6
  %163 = call i32 @pthread_mutex_unlock(ptr noundef @g_context_lock) #6
  store i32 %163, ptr %14, align 4
  %164 = load i32, ptr %14, align 4
  %165 = icmp ne i32 %164, 0
  br i1 %165, label %166, label %169

166:                                              ; preds = %162
  %167 = load i32, ptr %14, align 4
  %168 = call ptr @__errno_location() #7
  store i32 %167, ptr %168, align 4
  call void (ptr, ...) @fatal_abort(ptr noundef @.str.7, ptr noundef @__func__.acct_gather_interconnect_fini) #8
  unreachable

169:                                              ; preds = %162
  call void @llvm.lifetime.end.p0(i64 4, ptr %14) #6
  br label %170

170:                                              ; preds = %169
  br label %171

171:                                              ; preds = %170
  %172 = load i32, ptr %3, align 4
  store i32 %172, ptr %1, align 4
  store i32 1, ptr %7, align 4
  br label %173

173:                                              ; preds = %171, %37
  call void @llvm.lifetime.end.p0(i64 4, ptr %4) #6
  call void @llvm.lifetime.end.p0(i64 4, ptr %3) #6
  call void @llvm.lifetime.end.p0(i64 4, ptr %2) #6
  %174 = load i32, ptr %1, align 4
  ret i32 %174
}