; Function Attrs: nounwind uwtable
define dso_local range(i32 -1, 1) i32 @acct_gather_interconnect_fini() local_unnamed_addr #0 {
  %1 = tail call i32 @pthread_mutex_lock(ptr noundef nonnull @g_context_lock) #7
  %.not = icmp eq i32 %1, 0
  br i1 %.not, label %4, label %2

2:                                                ; preds = %0
  %3 = tail call ptr @__errno_location() #8
  store i32 %1, ptr %3, align 4
  tail call void (ptr, ...) @fatal_abort(ptr noundef nonnull @.str.1, ptr noundef nonnull @__func__.acct_gather_interconnect_fini) #9
  unreachable

4:                                                ; preds = %0
  %.b41 = load i1, ptr @init_run, align 1
  br i1 %.b41, label %9, label %5

5:                                                ; preds = %4
  %6 = tail call i32 @pthread_mutex_unlock(ptr noundef nonnull @g_context_lock) #7
  %.not42 = icmp eq i32 %6, 0
  br i1 %.not42, label %63, label %7

7:                                                ; preds = %5
  %8 = tail call ptr @__errno_location() #8
  store i32 %6, ptr %8, align 4
  tail call void (ptr, ...) @fatal_abort(ptr noundef nonnull @.str.7, ptr noundef nonnull @__func__.acct_gather_interconnect_fini) #9
  unreachable

9:                                                ; preds = %4
  store i1 false, ptr @init_run, align 1
  %10 = load i64, ptr @watch_node_thread_id, align 8
  %.not43 = icmp eq i64 %10, 0
  br i1 %.not43, label %38, label %11

11:                                               ; preds = %9
  %12 = tail call i32 @pthread_mutex_unlock(ptr noundef nonnull @g_context_lock) #7
  %.not44 = icmp eq i32 %12, 0
  br i1 %.not44, label %15, label %13

13:                                               ; preds = %11
  %14 = tail call ptr @__errno_location() #8
  store i32 %12, ptr %14, align 4
  tail call void (ptr, ...) @fatal_abort(ptr noundef nonnull @.str.7, ptr noundef nonnull @__func__.acct_gather_interconnect_fini) #9
  unreachable

15:                                               ; preds = %11
  %16 = tail call i32 @pthread_mutex_lock(ptr noundef nonnull getelementptr inbounds nuw (i8, ptr @acct_gather_profile_timer, i64 376)) #7
  %.not45 = icmp eq i32 %16, 0
  br i1 %.not45, label %19, label %17

17:                                               ; preds = %15
  %18 = tail call ptr @__errno_location() #8
  store i32 %16, ptr %18, align 4
  tail call void (ptr, ...) @fatal_abort(ptr noundef nonnull @.str.1, ptr noundef nonnull @__func__.acct_gather_interconnect_fini) #9
  unreachable

19:                                               ; preds = %15
  %20 = tail call i32 @pthread_cond_signal(ptr noundef nonnull getelementptr inbounds nuw (i8, ptr @acct_gather_profile_timer, i64 328)) #7
  %.not46 = icmp eq i32 %20, 0
  br i1 %.not46, label %24, label %21

21:                                               ; preds = %19
  %22 = tail call ptr @__errno_location() #8
  store i32 %20, ptr %22, align 4
  %23 = tail call i32 (ptr, ...) @error(ptr noundef nonnull @.str.9, ptr noundef nonnull @.str.3, i32 noundef 193, ptr noundef nonnull @__func__.acct_gather_interconnect_fini) #7
  br label %24

24:                                               ; preds = %21, %19
  %25 = tail call i32 @pthread_mutex_unlock(ptr noundef nonnull getelementptr inbounds nuw (i8, ptr @acct_gather_profile_timer, i64 376)) #7
  %.not47 = icmp eq i32 %25, 0
  br i1 %.not47, label %28, label %26

26:                                               ; preds = %24
  %27 = tail call ptr @__errno_location() #8
  store i32 %25, ptr %27, align 4
  tail call void (ptr, ...) @fatal_abort(ptr noundef nonnull @.str.7, ptr noundef nonnull @__func__.acct_gather_interconnect_fini) #9
  unreachable

28:                                               ; preds = %24
  %29 = load i64, ptr @watch_node_thread_id, align 8
  %.not48 = icmp eq i64 %29, 0
  br i1 %.not48, label %.thread, label %30

30:                                               ; preds = %28
  %31 = tail call i32 @pthread_join(i64 noundef %29, ptr noundef null) #7
  store i64 0, ptr @watch_node_thread_id, align 8
  %.not49 = icmp eq i32 %31, 0
  br i1 %.not49, label %.thread, label %32

32:                                               ; preds = %30
  %33 = tail call ptr @__errno_location() #8
  store i32 %31, ptr %33, align 4
  %34 = tail call i32 (ptr, ...) @error(ptr noundef nonnull @.str.10, ptr noundef nonnull @__func__.acct_gather_interconnect_fini) #7
  br label %.thread

.thread:                                          ; preds = %28, %32, %30
  store i64 0, ptr @watch_node_thread_id, align 8
  %35 = tail call i32 @pthread_mutex_lock(ptr noundef nonnull @g_context_lock) #7
  %.not50 = icmp eq i32 %35, 0
  br i1 %.not50, label %38, label %36

36:                                               ; preds = %.thread
  %37 = tail call ptr @__errno_location() #8
  store i32 %35, ptr %37, align 4
  tail call void (ptr, ...) @fatal_abort(ptr noundef nonnull @.str.1, ptr noundef nonnull @__func__.acct_gather_interconnect_fini) #9
  unreachable

38:                                               ; preds = %.thread, %9
  %39 = load i32, ptr @g_context_num, align 4
  %40 = icmp sgt i32 %39, 0
  br i1 %40, label %.lr.ph, label %._crit_edge

.lr.ph:                                           ; preds = %38, %56
  %indvars.iv = phi i64 [ %indvars.iv.next, %56 ], [ 0, %38 ]
  %.02757 = phi i32 [ %.1, %56 ], [ 0, %38 ]
  %41 = load ptr, ptr @g_context, align 8
  %42 = getelementptr inbounds nuw ptr, ptr %41, i64 %indvars.iv
  %43 = load ptr, ptr %42, align 8
  %.not52 = icmp eq ptr %43, null
  br i1 %.not52, label %56, label %44

44:                                               ; preds = %.lr.ph
  %45 = tail call i32 @plugin_context_destroy(ptr noundef nonnull %43) #7
  %.not53 = icmp eq i32 %45, 0
  br i1 %.not53, label %56, label %46

46:                                               ; preds = %44
  %47 = tail call i32 @get_log_level() #7
  %48 = icmp sgt i32 %47, 4
  br i1 %48, label %49, label %56

49:                                               ; preds = %46
  %50 = load ptr, ptr @g_context, align 8
  %51 = getelementptr inbounds nuw ptr, ptr %50, i64 %indvars.iv
  %52 = load ptr, ptr %51, align 8
  %53 = getelementptr inbounds nuw i8, ptr %52, i64 16
  %54 = load ptr, ptr %53, align 8
  %55 = tail call ptr @slurm_strerror(i32 noundef %45) #7
  tail call void (i32, ptr, ...) @log_var(i32 noundef 5, ptr noundef nonnull @.str.11, ptr noundef nonnull @__func__.acct_gather_interconnect_fini, ptr noundef %54, ptr noundef %55) #7
  br label %56

56:                                               ; preds = %46, %49, %44, %.lr.ph
  %.1 = phi i32 [ %.02757, %44 ], [ %.02757, %.lr.ph ], [ -1, %49 ], [ -1, %46 ]
  %indvars.iv.next = add nuw nsw i64 %indvars.iv, 1
  %57 = load i32, ptr @g_context_num, align 4
  %58 = sext i32 %57 to i64
  %59 = icmp slt i64 %indvars.iv.next, %58
  br i1 %59, label %.lr.ph, label %._crit_edge, !llvm.loop !11

._crit_edge:                                      ; preds = %56, %38
  %.027.lcssa = phi i32 [ 0, %38 ], [ %.1, %56 ]
  tail call void @slurm_xfree(ptr noundef nonnull @ops) #7
  tail call void @slurm_xfree(ptr noundef nonnull @g_context) #7
  store i32 -1, ptr @g_context_num, align 4
  %60 = tail call i32 @pthread_mutex_unlock(ptr noundef nonnull @g_context_lock) #7
  %.not51 = icmp eq i32 %60, 0
  br i1 %.not51, label %63, label %61

61:                                               ; preds = %._crit_edge
  %62 = tail call ptr @__errno_location() #8
  store i32 %60, ptr %62, align 4
  tail call void (ptr, ...) @fatal_abort(ptr noundef nonnull @.str.7, ptr noundef nonnull @__func__.acct_gather_interconnect_fini) #9
  unreachable

63:                                               ; preds = %._crit_edge, %5
  %.0 = phi i32 [ 0, %5 ], [ %.027.lcssa, %._crit_edge ]
  ret i32 %.0
}